; Function Attrs: mustprogress uwtable
define dso_local noundef zeroext i1 @_ZN10cmCTestBZR15NoteNewRevisionEv(ptr noundef nonnull align 8 dereferenceable(816) %0) unnamed_addr #3 align 2 personality ptr @__gxx_personality_v0 {
  %2 = alloca %"class.std::__cxx11::basic_string", align 8
  %3 = alloca %"class.std::__cxx11::basic_ostringstream", align 8
  %4 = alloca %"class.std::__cxx11::basic_string", align 8
  call void @_ZN10cmCTestBZR8LoadInfoB5cxx11Ev(ptr dead_on_unwind nonnull writable sret(%"class.std::__cxx11::basic_string") align 8 %2, ptr noundef nonnull align 8 dereferenceable(816) %0)
  %5 = getelementptr inbounds i8, ptr %0, i64 472
  %6 = call noundef nonnull align 8 dereferenceable(32) ptr @_ZNSt7__cxx1112basic_stringIcSt11char_traitsIcESaIcEEaSEOS4_(ptr noundef nonnull align 8 dereferenceable(32) %5, ptr noundef nonnull align 8 dereferenceable(32) %2) #18
  call void @_ZNSt7__cxx1112basic_stringIcSt11char_traitsIcESaIcEED1Ev(ptr noundef nonnull align 8 dereferenceable(32) %2) #18
  %7 = getelementptr inbounds i8, ptr %0, i64 16
  %8 = load ptr, ptr %7, align 8
  %9 = call noundef nonnull align 8 dereferenceable(8) ptr @_ZStlsISt11char_traitsIcEERSt13basic_ostreamIcT_ES5_PKc(ptr noundef nonnull align 8 dereferenceable(8) %8, ptr noundef nonnull @.str.11)
  %10 = call noundef nonnull align 8 dereferenceable(8) ptr @_ZStlsIcSt11char_traitsIcESaIcEERSt13basic_ostreamIT_T0_ES7_RKNSt7__cxx1112basic_stringIS4_S5_T1_EE(ptr noundef nonnull align 8 dereferenceable(8) %9, ptr noundef nonnull align 8 dereferenceable(32) %5)
  %11 = call noundef nonnull align 8 dereferenceable(8) ptr @_ZStlsISt11char_traitsIcEERSt13basic_ostreamIcT_ES5_PKc(ptr noundef nonnull align 8 dereferenceable(8) %10, ptr noundef nonnull @.str.8)
  call void @_ZNSt7__cxx1119basic_ostringstreamIcSt11char_traitsIcESaIcEEC1Ev(ptr noundef nonnull align 8 dereferenceable(112) %3)
  %12 = invoke noundef nonnull align 8 dereferenceable(8) ptr @_ZStlsISt11char_traitsIcEERSt13basic_ostreamIcT_ES5_PKc(ptr noundef nonnull align 8 dereferenceable(8) %3, ptr noundef nonnull @.str.12)
          to label %13 unwind label %28

13:                                               ; preds = %1
  %14 = invoke noundef nonnull align 8 dereferenceable(8) ptr @_ZStlsIcSt11char_traitsIcESaIcEERSt13basic_ostreamIT_T0_ES7_RKNSt7__cxx1112basic_stringIS4_S5_T1_EE(ptr noundef nonnull align 8 dereferenceable(8) %12, ptr noundef nonnull align 8 dereferenceable(32) %5)
          to label %15 unwind label %28

15:                                               ; preds = %13
  %16 = invoke noundef nonnull align 8 dereferenceable(8) ptr @_ZStlsISt11char_traitsIcEERSt13basic_ostreamIcT_ES5_PKc(ptr noundef nonnull align 8 dereferenceable(8) %14, ptr noundef nonnull @.str.8)
          to label %17 unwind label %28

17:                                               ; preds = %15
  %18 = getelementptr inbounds i8, ptr %0, i64 8
  %19 = load ptr, ptr %18, align 8
  invoke void @_ZNKSt7__cxx1119basic_ostringstreamIcSt11char_traitsIcESaIcEE3strEv(ptr dead_on_unwind nonnull writable sret(%"class.std::__cxx11::basic_string") align 8 %4, ptr noundef nonnull align 8 dereferenceable(112) %3)
          to label %20 unwind label %28

20:                                               ; preds = %17
  %21 = call noundef ptr @_ZNKSt7__cxx1112basic_stringIcSt11char_traitsIcESaIcEE5c_strEv(ptr noundef nonnull align 8 dereferenceable(32) %4) #18
  invoke void @_ZN7cmCTest3LogEiPKciS1_b(ptr noundef nonnull align 8 dereferenceable(8) %19, i32 noundef 2, ptr noundef nonnull @.str.10, i32 noundef 171, ptr noundef %21, i1 noundef zeroext false)
          to label %22 unwind label %30

22:                                               ; preds = %20
  call void @_ZNSt7__cxx1112basic_stringIcSt11char_traitsIcESaIcEED1Ev(ptr noundef nonnull align 8 dereferenceable(32) %4) #18
  call void @_ZNSt7__cxx1119basic_ostringstreamIcSt11char_traitsIcESaIcEED1Ev(ptr noundef nonnull align 8 dereferenceable(112) %3) #18
  %23 = load ptr, ptr %7, align 8
  %24 = call noundef nonnull align 8 dereferenceable(8) ptr @_ZStlsISt11char_traitsIcEERSt13basic_ostreamIcT_ES5_PKc(ptr noundef nonnull align 8 dereferenceable(8) %23, ptr noundef nonnull @.str.13)
  %25 = getelementptr inbounds i8, ptr %0, i64 784
  %26 = call noundef nonnull align 8 dereferenceable(8) ptr @_ZStlsIcSt11char_traitsIcESaIcEERSt13basic_ostreamIT_T0_ES7_RKNSt7__cxx1112basic_stringIS4_S5_T1_EE(ptr noundef nonnull align 8 dereferenceable(8) %24, ptr noundef nonnull align 8 dereferenceable(32) %25)
  %27 = call noundef nonnull align 8 dereferenceable(8) ptr @_ZStlsISt11char_traitsIcEERSt13basic_ostreamIcT_ES5_PKc(ptr noundef nonnull align 8 dereferenceable(8) %26, ptr noundef nonnull @.str.8)
  ret i1 true

28:                                               ; preds = %17, %15, %13, %1
  %29 = landingpad { ptr, i32 }
          cleanup
  br label %32

30:                                               ; preds = %20
  %31 = landingpad { ptr, i32 }
          cleanup
  call void @_ZNSt7__cxx1112basic_stringIcSt11char_traitsIcESaIcEED1Ev(ptr noundef nonnull align 8 dereferenceable(32) %4) #18
  br label %32

32:                                               ; preds = %30, %28
  %.pn = phi { ptr, i32 } [ %31, %30 ], [ %29, %28 ]
  call void @_ZNSt7__cxx1119basic_ostringstreamIcSt11char_traitsIcESaIcEED1Ev(ptr noundef nonnull align 8 dereferenceable(112) %3) #18
  resume { ptr, i32 } %.pn
}